; Function Attrs: mustprogress uwtable
define noundef double @_ZNK6icu_7513LocaleMatcher13internalMatchERKNS_6LocaleES3_R10UErrorCode(ptr nocapture noundef nonnull readonly align 8 dereferenceable(104) %this, ptr noundef nonnull align 8 dereferenceable(217) %desired, ptr noundef nonnull align 8 dereferenceable(217) %supported, ptr noundef nonnull align 4 dereferenceable(4) %errorCode) local_unnamed_addr #2 align 2 personality ptr @__gxx_personality_v0 {
entry:
  %suppLSR = alloca %"struct.icu_75::LSR", align 8
  %pSuppLSR = alloca ptr, align 8
  %ref.tmp = alloca %"struct.icu_75::LSR", align 8
  %0 = load ptr, ptr %this, align 8
  tail call void @llvm.experimental.noalias.scope.decl(metadata !55)
  %1 = load i32, ptr %errorCode, align 4, !noalias !55
  %cmp.i.i = icmp slt i32 %1, 1
  %fIsBogus.i.i = getelementptr inbounds i8, ptr %supported, i64 216
  %2 = load i8, ptr %fIsBogus.i.i, align 8, !noalias !55
  %tobool2.not.i = icmp eq i8 %2, 0
  %or.cond.i = select i1 %cmp.i.i, i1 %tobool2.not.i, i1 false
  br i1 %or.cond.i, label %lor.lhs.false3.i, label %if.then.i

lor.lhs.false3.i:                                 ; preds = %entry
  %fullName.i.i = getelementptr inbounds i8, ptr %supported, i64 40
  %3 = load ptr, ptr %fullName.i.i, align 8, !noalias !55
  %4 = load i8, ptr %3, align 1, !noalias !55
  %cmp.i = icmp eq i8 %4, 0
  br i1 %cmp.i, label %if.then.i, label %if.else.i

if.then.i:                                        ; preds = %lor.lhs.false3.i, %entry
  store ptr @.str, ptr %suppLSR, align 8, !alias.scope !55
  %script.i.i = getelementptr inbounds i8, ptr %suppLSR, i64 8
  store ptr @.str.1, ptr %script.i.i, align 8, !alias.scope !55
  %region.i.i = getelementptr inbounds i8, ptr %suppLSR, i64 16
  store ptr @.str.1, ptr %region.i.i, align 8, !alias.scope !55
  %owned.i.i = getelementptr inbounds i8, ptr %suppLSR, i64 24
  store ptr null, ptr %owned.i.i, align 8, !alias.scope !55
  %regionIndex.i.i = getelementptr inbounds i8, ptr %suppLSR, i64 32
  %call.i.i = tail call noundef i32 @_ZN6icu_753LSR14indexForRegionEPKc(ptr noundef nonnull @.str.1), !noalias !55
  store i32 %call.i.i, ptr %regionIndex.i.i, align 8, !alias.scope !55
  %flags.i.i = getelementptr inbounds i8, ptr %suppLSR, i64 36
  store i32 7, ptr %flags.i.i, align 4, !alias.scope !55
  %hashCode.i.i = getelementptr inbounds i8, ptr %suppLSR, i64 40
  store i32 0, ptr %hashCode.i.i, align 8, !alias.scope !55
  br label %_ZN6icu_7512_GLOBAL__N_118getMaximalLsrOrUndERKNS_13LikelySubtagsERKNS_6LocaleER10UErrorCode.exit

if.else.i:                                        ; preds = %lor.lhs.false3.i
  call void @_ZNK6icu_7513LikelySubtags20makeMaximizedLsrFromERKNS_6LocaleEbR10UErrorCode(ptr nonnull sret(%"struct.icu_75::LSR") align 8 %suppLSR, ptr noundef nonnull align 8 dereferenceable(352) %0, ptr noundef nonnull align 8 dereferenceable(217) %supported, i1 noundef zeroext false, ptr noundef nonnull align 4 dereferenceable(4) %errorCode)
  br label %_ZN6icu_7512_GLOBAL__N_118getMaximalLsrOrUndERKNS_13LikelySubtagsERKNS_6LocaleER10UErrorCode.exit

_ZN6icu_7512_GLOBAL__N_118getMaximalLsrOrUndERKNS_13LikelySubtagsERKNS_6LocaleER10UErrorCode.exit: ; preds = %if.then.i, %if.else.i
  %5 = load i32, ptr %errorCode, align 4
  %cmp.i4 = icmp slt i32 %5, 1
  br i1 %cmp.i4, label %if.end, label %cleanup

lpad:                                             ; preds = %if.else.i20, %if.then.i9
  %6 = landingpad { ptr, i32 }
          cleanup
  br label %ehcleanup

if.end:                                           ; preds = %_ZN6icu_7512_GLOBAL__N_118getMaximalLsrOrUndERKNS_13LikelySubtagsERKNS_6LocaleER10UErrorCode.exit
  store ptr %suppLSR, ptr %pSuppLSR, align 8
  %localeDistance = getelementptr inbounds i8, ptr %this, i64 8
  %7 = load ptr, ptr %localeDistance, align 8
  %8 = load ptr, ptr %this, align 8
  call void @llvm.experimental.noalias.scope.decl(metadata !58)
  %fIsBogus.i.i6 = getelementptr inbounds i8, ptr %desired, i64 216
  %9 = load i8, ptr %fIsBogus.i.i6, align 8, !noalias !58
  %tobool2.not.i7 = icmp eq i8 %9, 0
  br i1 %tobool2.not.i7, label %lor.lhs.false3.i17, label %if.then.i9

lor.lhs.false3.i17:                               ; preds = %if.end
  %fullName.i.i18 = getelementptr inbounds i8, ptr %desired, i64 40
  %10 = load ptr, ptr %fullName.i.i18, align 8, !noalias !58
  %11 = load i8, ptr %10, align 1, !noalias !58
  %cmp.i19 = icmp eq i8 %11, 0
  br i1 %cmp.i19, label %if.then.i9, label %if.else.i20

if.then.i9:                                       ; preds = %lor.lhs.false3.i17, %if.end
  store ptr @.str, ptr %ref.tmp, align 8, !alias.scope !58
  %script.i.i10 = getelementptr inbounds i8, ptr %ref.tmp, i64 8
  store ptr @.str.1, ptr %script.i.i10, align 8, !alias.scope !58
  %region.i.i11 = getelementptr inbounds i8, ptr %ref.tmp, i64 16
  store ptr @.str.1, ptr %region.i.i11, align 8, !alias.scope !58
  %owned.i.i12 = getelementptr inbounds i8, ptr %ref.tmp, i64 24
  store ptr null, ptr %owned.i.i12, align 8, !alias.scope !58
  %call.i.i1421 = invoke noundef i32 @_ZN6icu_753LSR14indexForRegionEPKc(ptr noundef nonnull @.str.1)
          to label %call.i.i14.noexc unwind label %lpad

call.i.i14.noexc:                                 ; preds = %if.then.i9
  %regionIndex.i.i13 = getelementptr inbounds i8, ptr %ref.tmp, i64 32
  store i32 %call.i.i1421, ptr %regionIndex.i.i13, align 8, !alias.scope !58
  %flags.i.i15 = getelementptr inbounds i8, ptr %ref.tmp, i64 36
  store i32 7, ptr %flags.i.i15, align 4, !alias.scope !58
  %hashCode.i.i16 = getelementptr inbounds i8, ptr %ref.tmp, i64 40
  store i32 0, ptr %hashCode.i.i16, align 8, !alias.scope !58
  br label %invoke.cont3

if.else.i20:                                      ; preds = %lor.lhs.false3.i17
  invoke void @_ZNK6icu_7513LikelySubtags20makeMaximizedLsrFromERKNS_6LocaleEbR10UErrorCode(ptr nonnull sret(%"struct.icu_75::LSR") align 8 %ref.tmp, ptr noundef nonnull align 8 dereferenceable(352) %8, ptr noundef nonnull align 8 dereferenceable(217) %desired, i1 noundef zeroext false, ptr noundef nonnull align 4 dereferenceable(4) %errorCode)
          to label %invoke.cont3 unwind label %lpad

invoke.cont3:                                     ; preds = %call.i.i14.noexc, %if.else.i20
  %thresholdDistance = getelementptr inbounds i8, ptr %this, i64 16
  %12 = load i32, ptr %thresholdDistance, align 8
  %shl.i = shl i32 %12, 3
  %favorSubtag = getelementptr inbounds i8, ptr %this, i64 24
  %13 = load i32, ptr %favorSubtag, align 8
  %direction = getelementptr inbounds i8, ptr %this, i64 28
  %14 = load i32, ptr %direction, align 4
  %call8 = invoke noundef i32 @_ZNK6icu_7514LocaleDistance23getBestIndexAndDistanceERKNS_3LSREPPS2_ii20ULocMatchFavorSubtag18ULocMatchDirection(ptr noundef nonnull align 8 dereferenceable(88) %7, ptr noundef nonnull align 8 dereferenceable(48) %ref.tmp, ptr noundef nonnull %pSuppLSR, i32 noundef 1, i32 noundef %shl.i, i32 noundef %13, i32 noundef %14)
          to label %invoke.cont7 unwind label %lpad4

invoke.cont7:                                     ; preds = %invoke.cont3
  %owned.i = getelementptr inbounds i8, ptr %ref.tmp, i64 24
  %15 = load ptr, ptr %owned.i, align 8
  %cmp.not.i = icmp eq ptr %15, null
  br i1 %cmp.not.i, label %_ZN6icu_753LSRD2Ev.exit, label %if.then.i23

if.then.i23:                                      ; preds = %invoke.cont7
  invoke void @_ZN6icu_753LSR11deleteOwnedEv(ptr noundef nonnull align 8 dereferenceable(48) %ref.tmp)
          to label %_ZN6icu_753LSRD2Ev.exit unwind label %terminate.lpad.i

terminate.lpad.i:                                 ; preds = %if.then.i23
  %16 = landingpad { ptr, i32 }
          catch ptr null
  %17 = extractvalue { ptr, i32 } %16, 0
  call void @__clang_call_terminate(ptr %17) #16
  unreachable

_ZN6icu_753LSRD2Ev.exit:                          ; preds = %invoke.cont7, %if.then.i23
  %and.i.i = and i32 %call8, 1023
  %conv.i24 = sitofp i32 %and.i.i to double
  %div.i = fmul double %conv.i24, 1.250000e-01
  %sub = fsub double 1.000000e+02, %div.i
  %div = fdiv double %sub, 1.000000e+02
  br label %cleanup

lpad4:                                            ; preds = %invoke.cont3
  %18 = landingpad { ptr, i32 }
          cleanup
  call void @_ZN6icu_753LSRD2Ev(ptr noundef nonnull align 8 dereferenceable(48) %ref.tmp) #15
  br label %ehcleanup

cleanup:                                          ; preds = %_ZN6icu_7512_GLOBAL__N_118getMaximalLsrOrUndERKNS_13LikelySubtagsERKNS_6LocaleER10UErrorCode.exit, %_ZN6icu_753LSRD2Ev.exit
  %retval.0 = phi double [ %div, %_ZN6icu_753LSRD2Ev.exit ], [ 0.000000e+00, %_ZN6icu_7512_GLOBAL__N_118getMaximalLsrOrUndERKNS_13LikelySubtagsERKNS_6LocaleER10UErrorCode.exit ]
  %owned.i25 = getelementptr inbounds i8, ptr %suppLSR, i64 24
  %19 = load ptr, ptr %owned.i25, align 8
  %cmp.not.i26 = icmp eq ptr %19, null
  br i1 %cmp.not.i26, label %_ZN6icu_753LSRD2Ev.exit29, label %if.then.i27

if.then.i27:                                      ; preds = %cleanup
  invoke void @_ZN6icu_753LSR11deleteOwnedEv(ptr noundef nonnull align 8 dereferenceable(48) %suppLSR)
          to label %_ZN6icu_753LSRD2Ev.exit29 unwind label %terminate.lpad.i28

terminate.lpad.i28:                               ; preds = %if.then.i27
  %20 = landingpad { ptr, i32 }
          catch ptr null
  %21 = extractvalue { ptr, i32 } %20, 0
  call void @__clang_call_terminate(ptr %21) #16
  unreachable

_ZN6icu_753LSRD2Ev.exit29:                        ; preds = %cleanup, %if.then.i27
  ret double %retval.0

ehcleanup:                                        ; preds = %lpad4, %lpad
  %.pn = phi { ptr, i32 } [ %18, %lpad4 ], [ %6, %lpad ]
  call void @_ZN6icu_753LSRD2Ev(ptr noundef nonnull align 8 dereferenceable(48) %suppLSR) #15
  resume { ptr, i32 } %.pn
}